; Function Attrs: mustprogress nounwind uwtable
define void @_ZN32pxrInternal_v0_24__pxrReserved__10PcpChangesD2Ev(ptr noundef nonnull align 8 dereferenceable(240) %0) unnamed_addr #4 align 2 personality ptr @__gxx_personality_v0 {
  %2 = getelementptr inbounds nuw i8, ptr %0, i64 144
  tail call void @_ZN32pxrInternal_v0_24__pxrReserved__11PcpLifeboatD1Ev(ptr noundef nonnull align 8 dereferenceable(96) %2) #25
  %3 = getelementptr inbounds nuw i8, ptr %0, i64 96
  %4 = getelementptr inbounds i8, ptr %0, i64 112
  %5 = load ptr, ptr %4, align 8
  invoke void @_ZNSt8_Rb_treeIPN32pxrInternal_v0_24__pxrReserved__8PcpCacheESt4pairIKS2_St3mapINS0_7SdfPathES6_St4lessIS6_ESaIS3_IKS6_S6_EEEESt10_Select1stISD_ES7_IS2_ESaISD_EE8_M_eraseEPSt13_Rb_tree_nodeISD_E(ptr noundef nonnull align 8 dereferenceable(48) %3, ptr noundef %5)
          to label %_ZNSt3mapIPN32pxrInternal_v0_24__pxrReserved__8PcpCacheES_INS0_7SdfPathES3_St4lessIS3_ESaISt4pairIKS3_S3_EEES4_IS2_ESaIS6_IKS2_SA_EEED2Ev.exit unwind label %6

6:                                                ; preds = %1
  %7 = landingpad { ptr, i32 }
          catch ptr null
  %8 = extractvalue { ptr, i32 } %7, 0
  tail call void @__clang_call_terminate(ptr %8) #24
  unreachable

_ZNSt3mapIPN32pxrInternal_v0_24__pxrReserved__8PcpCacheES_INS0_7SdfPathES3_St4lessIS3_ESaISt4pairIKS3_S3_EEES4_IS2_ESaIS6_IKS2_SA_EEED2Ev.exit: ; preds = %1
  %9 = getelementptr inbounds nuw i8, ptr %0, i64 48
  %10 = getelementptr inbounds i8, ptr %0, i64 64
  %11 = load ptr, ptr %10, align 8
  invoke void @_ZNSt8_Rb_treeIPN32pxrInternal_v0_24__pxrReserved__8PcpCacheESt4pairIKS2_NS0_15PcpCacheChangesEESt10_Select1stIS6_ESt4lessIS2_ESaIS6_EE8_M_eraseEPSt13_Rb_tree_nodeIS6_E(ptr noundef nonnull align 8 dereferenceable(48) %9, ptr noundef %11)
          to label %_ZNSt3mapIPN32pxrInternal_v0_24__pxrReserved__8PcpCacheENS0_15PcpCacheChangesESt4lessIS2_ESaISt4pairIKS2_S3_EEED2Ev.exit unwind label %12

12:                                               ; preds = %_ZNSt3mapIPN32pxrInternal_v0_24__pxrReserved__8PcpCacheES_INS0_7SdfPathES3_St4lessIS3_ESaISt4pairIKS3_S3_EEES4_IS2_ESaIS6_IKS2_SA_EEED2Ev.exit
  %13 = landingpad { ptr, i32 }
          catch ptr null
  %14 = extractvalue { ptr, i32 } %13, 0
  tail call void @__clang_call_terminate(ptr %14) #24
  unreachable

_ZNSt3mapIPN32pxrInternal_v0_24__pxrReserved__8PcpCacheENS0_15PcpCacheChangesESt4lessIS2_ESaISt4pairIKS2_S3_EEED2Ev.exit: ; preds = %_ZNSt3mapIPN32pxrInternal_v0_24__pxrReserved__8PcpCacheES_INS0_7SdfPathES3_St4lessIS3_ESaISt4pairIKS3_S3_EEES4_IS2_ESaIS6_IKS2_SA_EEED2Ev.exit
  %15 = getelementptr inbounds i8, ptr %0, i64 16
  %16 = load ptr, ptr %15, align 8
  invoke void @_ZNSt8_Rb_treeIN32pxrInternal_v0_24__pxrReserved__9TfWeakPtrINS0_13PcpLayerStackEEESt4pairIKS3_NS0_20PcpLayerStackChangesEESt10_Select1stIS7_ESt4lessIS3_ESaIS7_EE8_M_eraseEPSt13_Rb_tree_nodeIS7_E(ptr noundef nonnull align 8 dereferenceable(48) %0, ptr noundef %16)
          to label %_ZNSt3mapIN32pxrInternal_v0_24__pxrReserved__9TfWeakPtrINS0_13PcpLayerStackEEENS0_20PcpLayerStackChangesESt4lessIS3_ESaISt4pairIKS3_S4_EEED2Ev.exit unwind label %17

17:                                               ; preds = %_ZNSt3mapIPN32pxrInternal_v0_24__pxrReserved__8PcpCacheENS0_15PcpCacheChangesESt4lessIS2_ESaISt4pairIKS2_S3_EEED2Ev.exit
  %18 = landingpad { ptr, i32 }
          catch ptr null
  %19 = extractvalue { ptr, i32 } %18, 0
  tail call void @__clang_call_terminate(ptr %19) #24
  unreachable

_ZNSt3mapIN32pxrInternal_v0_24__pxrReserved__9TfWeakPtrINS0_13PcpLayerStackEEENS0_20PcpLayerStackChangesESt4lessIS3_ESaISt4pairIKS3_S4_EEED2Ev.exit: ; preds = %_ZNSt3mapIPN32pxrInternal_v0_24__pxrReserved__8PcpCacheENS0_15PcpCacheChangesESt4lessIS2_ESaISt4pairIKS2_S3_EEED2Ev.exit
  ret void
}